(dp0
S'aa'
p1
ccopy_reg
_reconstructor
p2
(cmodels
Url
p3
c__builtin__
object
p4
Ntp5
Rp6
(dp7
S'short_url'
p8
g1
sS'full_url'
p9
Vwww.google.com
p10
sbsS'ac'
p11
g2
(g3
g4
Ntp12
Rp13
(dp14
g8
g11
sg9
Vwww.google.com
p15
sbsS'ab'
p16
g2
(g3
g4
Ntp17
Rp18
(dp19
g8
g16
sg9
Vwww.google.com
p20
sbsS'ae'
p21
g2
(g3
g4
Ntp22
Rp23
(dp24
g8
g21
sg9
Vwww.google.com
p25
sbsS'ad'
p26
g2
(g3
g4
Ntp27
Rp28
(dp29
g8
g26
sg9
Vwww.google.com
p30
sbsS'af'
p31
g2
(g3
g4
Ntp32
Rp33
(dp34
g8
g31
sg9
Vwww.google.com
p35
sbsS'a'
p36
g2
(g3
g4
Ntp37
Rp38
(dp39
g8
g36
sg9
Vwww.google.com
p40
sbsS'c'
p41
g2
(g3
g4
Ntp42
Rp43
(dp44
g8
g41
sg9
Vwww.google.com
p45
sbsS'b'
p46
g2
(g3
g4
Ntp47
Rp48
(dp49
g8
g46
sg9
Vwww.google.com
p50
sbsS'e'
p51
g2
(g3
g4
Ntp52
Rp53
(dp54
g8
g51
sg9
Vwww.google.com
p55
sbsS'd'
p56
g2
(g3
g4
Ntp57
Rp58
(dp59
g8
g56
sg9
Vwww.google.com
p60
sbsS'g'
p61
g2
(g3
g4
Ntp62
Rp63
(dp64
g8
g61
sg9
Vwww.google.com
p65
sbsS'f'
p66
g2
(g3
g4
Ntp67
Rp68
(dp69
g8
g66
sg9
Vwww.google.com
p70
sbsS'i'
p71
g2
(g3
g4
Ntp72
Rp73
(dp74
g8
g71
sg9
Vwww.google.com
p75
sbsS'h'
p76
g2
(g3
g4
Ntp77
Rp78
(dp79
g8
g76
sg9
Vwww.google.com
p80
sbsS'k'
p81
g2
(g3
g4
Ntp82
Rp83
(dp84
g8
g81
sg9
Vwww.google.com
p85
sbsS'j'
p86
g2
(g3
g4
Ntp87
Rp88
(dp89
g8
g86
sg9
Vwww.google.com
p90
sbsS'm'
p91
g2
(g3
g4
Ntp92
Rp93
(dp94
g8
g91
sg9
Vwww.google.com
p95
sbsS'l'
p96
g2
(g3
g4
Ntp97
Rp98
(dp99
g8
g96
sg9
Vwww.google.com
p100
sbsS'o'
p101
g2
(g3
g4
Ntp102
Rp103
(dp104
g8
g101
sg9
Vwww.google.com
p105
sbsS'n'
p106
g2
(g3
g4
Ntp107
Rp108
(dp109
g8
g106
sg9
Vwww.google.com
p110
sbsS'q'
p111
g2
(g3
g4
Ntp112
Rp113
(dp114
g8
g111
sg9
Vwww.google.com
p115
sbsS'p'
p116
g2
(g3
g4
Ntp117
Rp118
(dp119
g8
g116
sg9
Vwww.google.com
p120
sbsS's'
p121
g2
(g3
g4
Ntp122
Rp123
(dp124
g8
g121
sg9
Vwww.google.com
p125
sbsS'r'
p126
g2
(g3
g4
Ntp127
Rp128
(dp129
g8
g126
sg9
Vwww.google.com
p130
sbsS'u'
p131
g2
(g3
g4
Ntp132
Rp133
(dp134
g8
g131
sg9
Vwww.google.com
p135
sbsS't'
p136
g2
(g3
g4
Ntp137
Rp138
(dp139
g8
g136
sg9
Vwww.google.com
p140
sbsS'w'
p141
g2
(g3
g4
Ntp142
Rp143
(dp144
g8
g141
sg9
Vwww.google.com
p145
sbsS'v'
p146
g2
(g3
g4
Ntp147
Rp148
(dp149
g8
g146
sg9
Vwww.google.com
p150
sbsS'y'
p151
g2
(g3
g4
Ntp152
Rp153
(dp154
g8
g151
sg9
Vwww.google.com
p155
sbsS'x'
p156
g2
(g3
g4
Ntp157
Rp158
(dp159
g8
g156
sg9
Vwww.google.com
p160
sbsS'z'
p161
g2
(g3
g4
Ntp162
Rp163
(dp164
g8
g161
sg9
Vwww.google.com
p165
sbs.